target datalayout = "e-m:e-p270:32:32-p271:32:32-p272:64:64-i64:64-i128:128-f80:128-n8:16:32:64-S128"
target triple = "x86_64-pc-linux-gnu"

%"class.std::locale" = type { ptr }
%class.cmGeneratedFileStreamBase = type <{ %"class.std::__cxx11::basic_string", %"class.std::__cxx11::basic_string", %"class.std::__cxx11::basic_string", i8, i8, i8, i8, [4 x i8] }>
%"class.std::__cxx11::basic_string" = type { %"struct.std::__cxx11::basic_string<char>::_Alloc_hider", i64, %union.anon }
%"struct.std::__cxx11::basic_string<char>::_Alloc_hider" = type { ptr }
%union.anon = type { i64, [8 x i8] }
%"class.std::ios_base" = type { ptr, i64, i64, i32, i32, i32, ptr, %"struct.std::ios_base::_Words", [8 x %"struct.std::ios_base::_Words"], i32, ptr, %"class.std::locale" }
%"struct.std::ios_base::_Words" = type { ptr, i64 }

; Function Attrs: mustprogress nounwind uwtable
define linkonce_odr dso_local void @_ZNKSt8ios_base6getlocEv(ptr dead_on_unwind noalias writable sret(%"class.std::locale") align 8 %0, ptr noundef nonnull align 8 dereferenceable(216) %1) #5 comdat align 2 {
  %3 = alloca ptr, align 8
  %4 = alloca ptr, align 8
  store ptr %0, ptr %3, align 8
  store ptr %1, ptr %4, align 8
  %5 = load ptr, ptr %4, align 8
  %6 = getelementptr inbounds %"class.std::ios_base", ptr %5, i32 0, i32 11
  call void @_ZNSt6localeC1ERKS_(ptr noundef nonnull align 8 dereferenceable(8) %0, ptr noundef nonnull align 8 dereferenceable(8) %6) #3
  ret void
}

; Function Attrs: mustprogress nounwind uwtable
define dso_local void @_ZN25cmGeneratedFileStreamBaseC2Ev(ptr noundef nonnull align 8 dereferenceable(100) %0) unnamed_addr #5 align 2 {
  %2 = alloca ptr, align 8
  store ptr %0, ptr %2, align 8
  %3 = load ptr, ptr %2, align 8
  %4 = getelementptr inbounds %class.cmGeneratedFileStreamBase, ptr %3, i32 0, i32 0
  call void @_ZNSt7__cxx1112basic_stringIcSt11char_traitsIcESaIcEEC1Ev(ptr noundef nonnull align 8 dereferenceable(32) %4) #3
  %5 = getelementptr inbounds %class.cmGeneratedFileStreamBase, ptr %3, i32 0, i32 1
  call void @_ZNSt7__cxx1112basic_stringIcSt11char_traitsIcESaIcEEC1Ev(ptr noundef nonnull align 8 dereferenceable(32) %5) #3
  %6 = getelementptr inbounds %class.cmGeneratedFileStreamBase, ptr %3, i32 0, i32 2
  call void @_ZNSt7__cxx1112basic_stringIcSt11char_traitsIcESaIcEEC1Ev(ptr noundef nonnull align 8 dereferenceable(32) %6) #3
  %7 = getelementptr inbounds %class.cmGeneratedFileStreamBase, ptr %3, i32 0, i32 3
  store i8 0, ptr %7, align 8
  %8 = getelementptr inbounds %class.cmGeneratedFileStreamBase, ptr %3, i32 0, i32 4
  store i8 0, ptr %8, align 1
  %9 = getelementptr inbounds %class.cmGeneratedFileStreamBase, ptr %3, i32 0, i32 5
  store i8 0, ptr %9, align 2
  %10 = getelementptr inbounds %class.cmGeneratedFileStreamBase, ptr %3, i32 0, i32 6
  store i8 1, ptr %10, align 1
  ret void
}

; Function Attrs: mustprogress uwtable
define dso_local void @_ZN21cmGeneratedFileStreamC1E16codecvt_Encoding(ptr noundef nonnull align 8 dereferenceable(348) %0, i32 noundef %1) unnamed_addr #4 align 2 personality ptr @__gxx_personality_v0 {
  %3 = alloca ptr, align 8
  %4 = alloca i32, align 4
  %5 = alloca ptr, align 8
  %6 = alloca i32, align 4
  %7 = alloca %"class.std::locale", align 8
  %8 = alloca %"class.std::locale", align 8
  %9 = alloca %"class.std::locale", align 8
  store ptr %0, ptr %3, align 8
  store i32 %1, ptr %4, align 4
  %10 = load ptr, ptr %3, align 8
  %11 = getelementptr inbounds i8, ptr %10, i64 352
  call void @_ZNSt9basic_iosIcSt11char_traitsIcEEC2Ev(ptr noundef nonnull align 8 dereferenceable(264) %11)
  %12 = getelementptr inbounds i8, ptr %10, i64 248
  invoke void @_ZN25cmGeneratedFileStreamBaseC2Ev(ptr noundef nonnull align 8 dereferenceable(100) %12)
          to label %13 unwind label %34

13:                                               ; preds = %2
  invoke void @_ZNSt14basic_ofstreamIcSt11char_traitsIcEEC2Ev(ptr noundef nonnull align 8 dereferenceable(248) %10, ptr noundef getelementptr inbounds ([6 x ptr], ptr @_ZTT21cmGeneratedFileStream, i64 0, i64 1))
          to label %14 unwind label %38

14:                                               ; preds = %13
  store ptr getelementptr inbounds ({ [5 x ptr], [5 x ptr] }, ptr @_ZTV21cmGeneratedFileStream, i32 0, i32 0, i32 3), ptr %10, align 8
  %15 = getelementptr inbounds i8, ptr %10, i64 352
  store ptr getelementptr inbounds ({ [5 x ptr], [5 x ptr] }, ptr @_ZTV21cmGeneratedFileStream, i32 0, i32 1, i32 3), ptr %15, align 8
  %16 = load i32, ptr %4, align 4
  %17 = icmp ne i32 %16, 0
  br i1 %17, label %18, label %59

18:                                               ; preds = %14
  %19 = load ptr, ptr %10, align 8
  %20 = getelementptr i8, ptr %19, i64 -24
  %21 = load i64, ptr %20, align 8
  %22 = getelementptr inbounds i8, ptr %10, i64 %21
  %23 = load ptr, ptr %10, align 8
  %24 = getelementptr i8, ptr %23, i64 -24
  %25 = load i64, ptr %24, align 8
  %26 = getelementptr inbounds i8, ptr %10, i64 %25
  invoke void @_ZNKSt8ios_base6getlocEv(ptr dead_on_unwind writable sret(%"class.std::locale") align 8 %9, ptr noundef nonnull align 8 dereferenceable(216) %26)
          to label %27 unwind label %42

27:                                               ; preds = %18
  %28 = invoke noalias noundef nonnull ptr @_Znwm(i64 noundef 32) #11
          to label %29 unwind label %46

29:                                               ; preds = %27
  %30 = load i32, ptr %4, align 4
  invoke void @_ZN7codecvtC1E16codecvt_Encoding(ptr noundef nonnull align 8 dereferenceable(25) %28, i32 noundef %30)
          to label %31 unwind label %50

31:                                               ; preds = %29
  invoke void @_ZNSt6localeC2I7codecvtEERKS_PT_(ptr noundef nonnull align 8 dereferenceable(8) %8, ptr noundef nonnull align 8 dereferenceable(8) %9, ptr noundef %28)
          to label %32 unwind label %46

32:                                               ; preds = %31
  invoke void @_ZNSt9basic_iosIcSt11char_traitsIcEE5imbueERKSt6locale(ptr dead_on_unwind writable sret(%"class.std::locale") align 8 %7, ptr noundef nonnull align 8 dereferenceable(264) %22, ptr noundef nonnull align 8 dereferenceable(8) %8)
          to label %33 unwind label %54

33:                                               ; preds = %32
  call void @_ZNSt6localeD1Ev(ptr noundef nonnull align 8 dereferenceable(8) %7) #3
  call void @_ZNSt6localeD1Ev(ptr noundef nonnull align 8 dereferenceable(8) %8) #3
  call void @_ZNSt6localeD1Ev(ptr noundef nonnull align 8 dereferenceable(8) %9) #3
  br label %59

34:                                               ; preds = %2
  %35 = landingpad { ptr, i32 }
          cleanup
  %36 = extractvalue { ptr, i32 } %35, 0
  store ptr %36, ptr %5, align 8
  %37 = extractvalue { ptr, i32 } %35, 1
  store i32 %37, ptr %6, align 4
  br label %63

38:                                               ; preds = %13
  %39 = landingpad { ptr, i32 }
          cleanup
  %40 = extractvalue { ptr, i32 } %39, 0
  store ptr %40, ptr %5, align 8
  %41 = extractvalue { ptr, i32 } %39, 1
  store i32 %41, ptr %6, align 4
  br label %61

42:                                               ; preds = %18
  %43 = landingpad { ptr, i32 }
          cleanup
  %44 = extractvalue { ptr, i32 } %43, 0
  store ptr %44, ptr %5, align 8
  %45 = extractvalue { ptr, i32 } %43, 1
  store i32 %45, ptr %6, align 4
  br label %60

46:                                               ; preds = %31, %27
  %47 = landingpad { ptr, i32 }
          cleanup
  %48 = extractvalue { ptr, i32 } %47, 0
  store ptr %48, ptr %5, align 8
  %49 = extractvalue { ptr, i32 } %47, 1
  store i32 %49, ptr %6, align 4
  br label %58

50:                                               ; preds = %29
  %51 = landingpad { ptr, i32 }
          cleanup
  %52 = extractvalue { ptr, i32 } %51, 0
  store ptr %52, ptr %5, align 8
  %53 = extractvalue { ptr, i32 } %51, 1
  store i32 %53, ptr %6, align 4
  call void @_ZdlPv(ptr noundef %28) #12
  br label %58

54:                                               ; preds = %32
  %55 = landingpad { ptr, i32 }
          cleanup
  %56 = extractvalue { ptr, i32 } %55, 0
  store ptr %56, ptr %5, align 8
  %57 = extractvalue { ptr, i32 } %55, 1
  store i32 %57, ptr %6, align 4
  call void @_ZNSt6localeD1Ev(ptr noundef nonnull align 8 dereferenceable(8) %8) #3
  br label %58

58:                                               ; preds = %54, %50, %46
  call void @_ZNSt6localeD1Ev(ptr noundef nonnull align 8 dereferenceable(8) %9) #3
  br label %60

59:                                               ; preds = %33, %14
  ret void

60:                                               ; preds = %58, %42
  call void @_ZNSt14basic_ofstreamIcSt11char_traitsIcEED2Ev(ptr noundef nonnull align 8 dereferenceable(248) %10, ptr noundef getelementptr inbounds ([6 x ptr], ptr @_ZTT21cmGeneratedFileStream, i64 0, i64 1)) #3
  br label %61

61:                                               ; preds = %60, %38
  %62 = getelementptr inbounds i8, ptr %10, i64 248
  call void @_ZN25cmGeneratedFileStreamBaseD2Ev(ptr noundef nonnull align 8 dereferenceable(100) %62) #3
  br label %63

63:                                               ; preds = %61, %34
  %64 = getelementptr inbounds i8, ptr %10, i64 352
  call void @_ZNSt9basic_iosIcSt11char_traitsIcEED2Ev(ptr noundef nonnull align 8 dereferenceable(264) %64) #3
  br label %65

65:                                               ; preds = %63
  %66 = load ptr, ptr %5, align 8
  %67 = load i32, ptr %6, align 4
  %68 = insertvalue { ptr, i32 } poison, ptr %66, 0
  %69 = insertvalue { ptr, i32 } %68, i32 %67, 1
  resume { ptr, i32 } %69
}