; Function Attrs: mustprogress uwtable
define dso_local void @_ZN21cmGeneratedFileStreamC1E16codecvt_Encoding(ptr noundef nonnull align 8 dereferenceable(348) %0, i32 noundef %1) unnamed_addr #3 align 2 personality ptr @__gxx_personality_v0 {
  %3 = alloca %"class.std::locale", align 8
  %4 = alloca %"class.std::locale", align 8
  %5 = alloca %"class.std::locale", align 8
  %6 = getelementptr inbounds i8, ptr %0, i64 352
  tail call void @_ZNSt9basic_iosIcSt11char_traitsIcEEC2Ev(ptr noundef nonnull align 8 dereferenceable(264) %6)
  %7 = getelementptr inbounds i8, ptr %0, i64 248
  tail call void @_ZNSt7__cxx1112basic_stringIcSt11char_traitsIcESaIcEEC1Ev(ptr noundef nonnull align 8 dereferenceable(32) %7) #15
  %8 = getelementptr inbounds i8, ptr %0, i64 280
  tail call void @_ZNSt7__cxx1112basic_stringIcSt11char_traitsIcESaIcEEC1Ev(ptr noundef nonnull align 8 dereferenceable(32) %8) #15
  %9 = getelementptr inbounds i8, ptr %0, i64 312
  tail call void @_ZNSt7__cxx1112basic_stringIcSt11char_traitsIcESaIcEEC1Ev(ptr noundef nonnull align 8 dereferenceable(32) %9) #15
  %10 = getelementptr inbounds i8, ptr %0, i64 344
  store <4 x i8> <i8 0, i8 0, i8 0, i8 1>, ptr %10, align 8
  invoke void @_ZNSt14basic_ofstreamIcSt11char_traitsIcEEC2Ev(ptr noundef nonnull align 8 dereferenceable(248) %0, ptr noundef nonnull getelementptr inbounds ([6 x ptr], ptr @_ZTT21cmGeneratedFileStream, i64 0, i64 1))
          to label %11 unwind label %19

11:                                               ; preds = %2
  store ptr getelementptr inbounds ({ [5 x ptr], [5 x ptr] }, ptr @_ZTV21cmGeneratedFileStream, i64 0, i32 0, i64 3), ptr %0, align 8
  store ptr getelementptr inbounds ({ [5 x ptr], [5 x ptr] }, ptr @_ZTV21cmGeneratedFileStream, i64 0, i32 1, i64 3), ptr %6, align 8
  %.not = icmp eq i32 %1, 0
  br i1 %.not, label %28, label %12

12:                                               ; preds = %11
  %13 = getelementptr inbounds i8, ptr %0, i64 560
  call void @_ZNSt6localeC1ERKS_(ptr noundef nonnull align 8 dereferenceable(8) %5, ptr noundef nonnull align 8 dereferenceable(8) %13) #15
  %14 = invoke noalias noundef nonnull dereferenceable(32) ptr @_Znwm(i64 noundef 32) #16
          to label %15 unwind label %21

15:                                               ; preds = %12
  invoke void @_ZN7codecvtC1E16codecvt_Encoding(ptr noundef nonnull align 8 dereferenceable(25) %14, i32 noundef %1)
          to label %16 unwind label %23

16:                                               ; preds = %15
  invoke void @_ZNSt6localeC2I7codecvtEERKS_PT_(ptr noundef nonnull align 8 dereferenceable(8) %4, ptr noundef nonnull align 8 dereferenceable(8) %5, ptr noundef nonnull %14)
          to label %17 unwind label %21

17:                                               ; preds = %16
  invoke void @_ZNSt9basic_iosIcSt11char_traitsIcEE5imbueERKSt6locale(ptr dead_on_unwind nonnull writable sret(%"class.std::locale") align 8 %3, ptr noundef nonnull align 8 dereferenceable(264) %6, ptr noundef nonnull align 8 dereferenceable(8) %4)
          to label %18 unwind label %25

18:                                               ; preds = %17
  call void @_ZNSt6localeD1Ev(ptr noundef nonnull align 8 dereferenceable(8) %3) #15
  call void @_ZNSt6localeD1Ev(ptr noundef nonnull align 8 dereferenceable(8) %4) #15
  call void @_ZNSt6localeD1Ev(ptr noundef nonnull align 8 dereferenceable(8) %5) #15
  br label %28

19:                                               ; preds = %2
  %20 = landingpad { ptr, i32 }
          cleanup
  br label %29

21:                                               ; preds = %16, %12
  %22 = landingpad { ptr, i32 }
          cleanup
  br label %27

23:                                               ; preds = %15
  %24 = landingpad { ptr, i32 }
          cleanup
  call void @_ZdlPv(ptr noundef nonnull %14) #17
  br label %27

25:                                               ; preds = %17
  %26 = landingpad { ptr, i32 }
          cleanup
  call void @_ZNSt6localeD1Ev(ptr noundef nonnull align 8 dereferenceable(8) %4) #15
  br label %27

27:                                               ; preds = %25, %23, %21
  %.pn = phi { ptr, i32 } [ %26, %25 ], [ %22, %21 ], [ %24, %23 ]
  call void @_ZNSt6localeD1Ev(ptr noundef nonnull align 8 dereferenceable(8) %5) #15
  call void @_ZNSt14basic_ofstreamIcSt11char_traitsIcEED2Ev(ptr noundef nonnull align 8 dereferenceable(248) %0, ptr noundef nonnull getelementptr inbounds ([6 x ptr], ptr @_ZTT21cmGeneratedFileStream, i64 0, i64 1)) #15
  br label %29

28:                                               ; preds = %18, %11
  ret void

29:                                               ; preds = %27, %19
  %.pn.pn = phi { ptr, i32 } [ %.pn, %27 ], [ %20, %19 ]
  call void @_ZN25cmGeneratedFileStreamBaseD2Ev(ptr noundef nonnull align 8 dereferenceable(100) %7) #15
  call void @_ZNSt9basic_iosIcSt11char_traitsIcEED2Ev(ptr noundef nonnull align 8 dereferenceable(264) %6) #15
  resume { ptr, i32 } %.pn.pn
}